; Function Attrs: mustprogress uwtable
define dso_local void @_ZN6spdlog7details11thread_pool12worker_loop_Ev(ptr noundef nonnull align 8 dereferenceable(224) %this) local_unnamed_addr #0 align 2 {
entry:
  br label %while.cond

while.cond:                                       ; preds = %while.cond, %entry
  %call = tail call noundef zeroext i1 @_ZN6spdlog7details11thread_pool17process_next_msg_Ev(ptr noundef nonnull align 8 dereferenceable(224) %this)
  br i1 %call, label %while.cond, label %while.end, !llvm.loop !35

while.end:                                        ; preds = %while.cond
  ret void
}